target datalayout = "e-m:e-p270:32:32-p271:32:32-p272:64:64-i64:64-i128:128-f80:128-n8:16:32:64-S128"
target triple = "x86_64-pc-linux-gnu"

%struct.H5FA_hdr_t = type { %struct.H5C_cache_entry_t, %struct.H5FA_create_t, i64, %struct.H5FA_stat_t, i64, i64, i64, ptr, i64, i8, i64, i64, ptr, i8, ptr, ptr }
%struct.H5C_cache_entry_t = type { ptr, i64, i64, ptr, i8, ptr, i8, i8, i8, i8, i32, i8, i8, i8, i8, i8, i32, ptr, i32, i32, i32, i32, i32, i8, i8, ptr, ptr, ptr, ptr, ptr, ptr, i8, i32, i8, i64, ptr, i64, i64, i32, i8, i32, i32, i8, ptr, ptr, ptr }
%struct.H5FA_create_t = type { ptr, i8, i8, i64 }
%struct.H5FA_stat_t = type { i64, i64, i64 }
%struct.H5FA_class_t = type { i32, ptr, i64, ptr, ptr, ptr, ptr, ptr, ptr, ptr, ptr }

@H5FA_init_g = external global i8, align 1
@H5_libterm_g = external global i8, align 1
@.str = private unnamed_addr constant [101 x i8] c"generated/home/dtcxzyw/WorkSpace/Projects/compilers/llvm-opt-benchmark/bench/hdf5/hdf5/src/H5FAhdr.c\00", align 1
@H5E_FARRAY_g = external global i64, align 8
@__func__.H5FA__hdr_init = private unnamed_addr constant [15 x i8] c"H5FA__hdr_init\00", align 1
@H5E_CANTCREATE_g = external global i64, align 8
@.str.3 = private unnamed_addr constant [53 x i8] c"unable to create fixed array client callback context\00", align 1

; Function Attrs: nounwind uwtable
define i32 @H5FA__hdr_init(ptr noundef %0, ptr noundef %1) #0 {
  %3 = alloca ptr, align 8
  %4 = alloca ptr, align 8
  %5 = alloca i32, align 4
  %6 = alloca i8, align 1
  store ptr %0, ptr %3, align 8, !tbaa !8
  store ptr %1, ptr %4, align 8, !tbaa !41
  call void @llvm.lifetime.start.p0(i64 4, ptr %5) #5
  store i32 0, ptr %5, align 4, !tbaa !34
  call void @llvm.lifetime.start.p0(i64 1, ptr %6) #5
  store i8 0, ptr %6, align 1, !tbaa !10
  %7 = load i8, ptr @H5FA_init_g, align 1, !tbaa !10, !range !12, !noundef !13
  %8 = trunc i8 %7 to i1
  br i1 %8, label %13, label %9

9:                                                ; preds = %2
  %10 = load i8, ptr @H5_libterm_g, align 1, !tbaa !10, !range !12, !noundef !13
  %11 = trunc i8 %10 to i1
  %12 = xor i1 %11, true
  br label %13

13:                                               ; preds = %9, %2
  %14 = phi i1 [ true, %2 ], [ %12, %9 ]
  %15 = xor i1 %14, true
  %16 = xor i1 %15, true
  %17 = zext i1 %16 to i32
  %18 = sext i32 %17 to i64
  %19 = call i64 @llvm.expect.i64(i64 %18, i64 1)
  %20 = icmp ne i64 %19, 0
  br i1 %20, label %21, label %83

21:                                               ; preds = %13
  %22 = load ptr, ptr %3, align 8, !tbaa !8
  %23 = getelementptr inbounds nuw %struct.H5FA_hdr_t, ptr %22, i32 0, i32 11
  %24 = load i64, ptr %23, align 8, !tbaa !33
  %25 = add i64 12, %24
  %26 = load ptr, ptr %3, align 8, !tbaa !8
  %27 = getelementptr inbounds nuw %struct.H5FA_hdr_t, ptr %26, i32 0, i32 10
  %28 = load i64, ptr %27, align 8, !tbaa !32
  %29 = add i64 %25, %28
  %30 = load ptr, ptr %3, align 8, !tbaa !8
  %31 = getelementptr inbounds nuw %struct.H5FA_hdr_t, ptr %30, i32 0, i32 6
  store i64 %29, ptr %31, align 8, !tbaa !42
  %32 = load ptr, ptr %3, align 8, !tbaa !8
  %33 = getelementptr inbounds nuw %struct.H5FA_hdr_t, ptr %32, i32 0, i32 3
  %34 = getelementptr inbounds nuw %struct.H5FA_stat_t, ptr %33, i32 0, i32 0
  store i64 %29, ptr %34, align 8, !tbaa !43
  %35 = load ptr, ptr %3, align 8, !tbaa !8
  %36 = getelementptr inbounds nuw %struct.H5FA_hdr_t, ptr %35, i32 0, i32 1
  %37 = getelementptr inbounds nuw %struct.H5FA_create_t, ptr %36, i32 0, i32 3
  %38 = load i64, ptr %37, align 8, !tbaa !44
  %39 = load ptr, ptr %3, align 8, !tbaa !8
  %40 = getelementptr inbounds nuw %struct.H5FA_hdr_t, ptr %39, i32 0, i32 3
  %41 = getelementptr inbounds nuw %struct.H5FA_stat_t, ptr %40, i32 0, i32 2
  store i64 %38, ptr %41, align 8, !tbaa !45
  %42 = load ptr, ptr %3, align 8, !tbaa !8
  %43 = getelementptr inbounds nuw %struct.H5FA_hdr_t, ptr %42, i32 0, i32 1
  %44 = getelementptr inbounds nuw %struct.H5FA_create_t, ptr %43, i32 0, i32 0
  %45 = load ptr, ptr %44, align 8, !tbaa !36
  %46 = getelementptr inbounds nuw %struct.H5FA_class_t, ptr %45, i32 0, i32 3
  %47 = load ptr, ptr %46, align 8, !tbaa !46
  %48 = icmp ne ptr %47, null
  br i1 %48, label %49, label %81

49:                                               ; preds = %21
  %50 = load ptr, ptr %3, align 8, !tbaa !8
  %51 = getelementptr inbounds nuw %struct.H5FA_hdr_t, ptr %50, i32 0, i32 1
  %52 = getelementptr inbounds nuw %struct.H5FA_create_t, ptr %51, i32 0, i32 0
  %53 = load ptr, ptr %52, align 8, !tbaa !36
  %54 = getelementptr inbounds nuw %struct.H5FA_class_t, ptr %53, i32 0, i32 3
  %55 = load ptr, ptr %54, align 8, !tbaa !46
  %56 = load ptr, ptr %4, align 8, !tbaa !41
  %57 = call ptr %55(ptr noundef %56)
  %58 = load ptr, ptr %3, align 8, !tbaa !8
  %59 = getelementptr inbounds nuw %struct.H5FA_hdr_t, ptr %58, i32 0, i32 12
  store ptr %57, ptr %59, align 8, !tbaa !35
  %60 = icmp eq ptr null, %57
  br i1 %60, label %61, label %80

61:                                               ; preds = %49
  br label %62

62:                                               ; preds = %61
  br label %63

63:                                               ; preds = %62
  br label %64

64:                                               ; preds = %63
  %65 = load i64, ptr @H5E_FARRAY_g, align 8, !tbaa !14
  %66 = load i64, ptr @H5E_CANTCREATE_g, align 8, !tbaa !14
  %67 = call i32 (ptr, ptr, i32, i64, i64, ptr, ...) @H5E_printf_stack(ptr noundef @.str, ptr noundef @__func__.H5FA__hdr_init, i32 noundef 146, i64 noundef %65, i64 noundef %66, ptr noundef @.str.3)
  br label %68

68:                                               ; preds = %64
  br label %69

69:                                               ; preds = %68
  store i8 1, ptr %6, align 1, !tbaa !10
  %70 = load i8, ptr %6, align 1, !tbaa !10, !range !12, !noundef !13
  %71 = trunc i8 %70 to i1
  %72 = zext i1 %71 to i8
  store i8 %72, ptr %6, align 1, !tbaa !10
  br label %73

73:                                               ; preds = %69
  br label %74

74:                                               ; preds = %73
  br label %75

75:                                               ; preds = %74
  store i32 -1, ptr %5, align 4, !tbaa !34
  br label %82

76:                                               ; No predecessors!
  br label %77

77:                                               ; preds = %76
  br label %78

78:                                               ; preds = %77
  br label %79

79:                                               ; preds = %78
  br label %80

80:                                               ; preds = %79, %49
  br label %81

81:                                               ; preds = %80, %21
  br label %82

82:                                               ; preds = %81, %75
  br label %83

83:                                               ; preds = %82, %13
  %84 = load i32, ptr %5, align 4, !tbaa !34
  call void @llvm.lifetime.end.p0(i64 1, ptr %6) #5
  call void @llvm.lifetime.end.p0(i64 4, ptr %5) #5
  ret i32 %84
}