; Function Attrs: nounwind uwtable
define range(i32 -1, 1) i32 @H5FA__hdr_init(ptr noundef captures(none) %0, ptr noundef %1) local_unnamed_addr #0 {
  %3 = load i8, ptr @H5FA_init_g, align 1, !tbaa !3, !range !7, !noundef !8
  %4 = trunc nuw i8 %3 to i1
  %5 = load i8, ptr @H5_libterm_g, align 1, !range !7
  %6 = trunc nuw i8 %5 to i1
  %7 = xor i1 %6, true
  %8 = select i1 %4, i1 true, i1 %7
  br i1 %8, label %9, label %33, !prof !9

9:                                                ; preds = %2
  %10 = getelementptr inbounds nuw i8, ptr %0, i64 360
  %11 = load i64, ptr %10, align 8, !tbaa !31
  %12 = add i64 %11, 12
  %13 = getelementptr inbounds nuw i8, ptr %0, i64 352
  %14 = load i64, ptr %13, align 8, !tbaa !30
  %15 = add i64 %12, %14
  %16 = getelementptr inbounds nuw i8, ptr %0, i64 320
  store i64 %15, ptr %16, align 8, !tbaa !38
  %17 = getelementptr inbounds nuw i8, ptr %0, i64 280
  store i64 %15, ptr %17, align 8, !tbaa !39
  %18 = getelementptr inbounds nuw i8, ptr %0, i64 248
  %19 = getelementptr inbounds nuw i8, ptr %0, i64 264
  %20 = load i64, ptr %19, align 8, !tbaa !40
  %21 = getelementptr inbounds nuw i8, ptr %0, i64 296
  store i64 %20, ptr %21, align 8, !tbaa !41
  %22 = load ptr, ptr %18, align 8, !tbaa !33
  %23 = getelementptr inbounds nuw i8, ptr %22, i64 24
  %24 = load ptr, ptr %23, align 8, !tbaa !42
  %.not = icmp eq ptr %24, null
  br i1 %.not, label %33, label %25

25:                                               ; preds = %9
  %26 = tail call ptr %24(ptr noundef %1) #5
  %27 = getelementptr inbounds nuw i8, ptr %0, i64 368
  store ptr %26, ptr %27, align 8, !tbaa !32
  %28 = icmp eq ptr %26, null
  br i1 %28, label %29, label %33

29:                                               ; preds = %25
  %30 = load i64, ptr @H5E_FARRAY_g, align 8, !tbaa !10
  %31 = load i64, ptr @H5E_CANTCREATE_g, align 8, !tbaa !10
  %32 = tail call i32 (ptr, ptr, i32, i64, i64, ptr, ...) @H5E_printf_stack(ptr noundef nonnull @.str, ptr noundef nonnull @__func__.H5FA__hdr_init, i32 noundef 146, i64 noundef %30, i64 noundef %31, ptr noundef nonnull @.str.3) #5
  br label %33

33:                                               ; preds = %29, %25, %9, %2
  %.0 = phi i32 [ -1, %29 ], [ 0, %25 ], [ 0, %9 ], [ 0, %2 ]
  ret i32 %.0
}